Certificate:
    Data:
        Version: 3 (0x2)
        Serial Number: 4097 (0x1001)
    Signature Algorithm: sha256WithRSAEncryption
        Issuer: C=CA, ST=BC, O=CADC, OU=CADC Internal Root CA
        Validity
            Not Before: Oct 11 22:50:39 2019 GMT
            Not After : Oct  8 22:50:39 2029 GMT
        Subject: C=CA, ST=BC, O=CADC, OU=CADC Internal Root CA
        Subject Public Key Info:
            Public Key Algorithm: rsaEncryption
                Public-Key: (2048 bit)
                Modulus:
                    00:c0:05:68:38:c6:e7:07:ca:33:13:82:31:83:69:
                    3f:39:86:15:93:0a:28:47:02:53:2b:b1:fb:30:28:
                    24:6d:51:3f:ce:ff:6d:c1:3f:c8:b4:d8:f1:1c:ee:
                    ba:f1:ea:28:3f:2e:29:63:00:de:15:fe:1f:97:80:
                    b3:54:1a:35:f3:28:14:bd:c3:b7:0c:e3:b9:29:ff:
                    34:d7:1c:74:3a:10:a8:57:da:55:ae:be:78:83:ac:
                    d4:d3:6d:17:a3:c9:50:59:a0:ef:2c:7f:28:5e:e0:
                    81:cc:48:14:f4:06:69:61:5b:08:0d:f3:8b:d9:0b:
                    e8:5d:fc:37:11:92:63:24:5b:e0:cf:40:6b:bd:53:
                    e3:65:82:ed:c1:6d:e0:4b:a1:9c:9d:b1:e6:13:00:
                    2e:db:9d:d3:36:14:ca:17:b3:ae:6d:be:71:37:44:
                    69:3d:ac:4b:02:ed:b2:da:3b:5c:eb:e0:d8:ab:7a:
                    69:41:b3:34:e8:88:fa:c0:b7:d0:bf:cf:14:d7:8a:
                    b3:8b:1c:c4:82:b9:a2:16:17:9d:0a:e4:d5:18:7a:
                    92:22:54:a6:cb:d1:3d:2e:80:c3:b3:c4:de:fd:77:
                    3c:6f:46:90:73:ba:96:db:27:d9:66:1c:9b:5d:98:
                    99:b5:50:78:84:b2:74:02:eb:ec:2f:65:1b:d1:93:
                    95:cb
                Exponent: 65537 (0x10001)
        X509v3 extensions:
            X509v3 Subject Key Identifier: 
                AE:87:74:27:4A:65:B5:2F:12:89:E8:57:12:F5:4B:CE:B9:BA:16:DE
            X509v3 Authority Key Identifier: 
                keyid:AE:87:74:27:4A:65:B5:2F:12:89:E8:57:12:F5:4B:CE:B9:BA:16:DE

            X509v3 Basic Constraints: critical
                CA:TRUE
            X509v3 Key Usage: critical
                Digital Signature, Certificate Sign, CRL Sign
    Signature Algorithm: sha256WithRSAEncryption
         2e:4b:fa:9c:92:06:a7:48:01:b1:6b:6f:8f:06:64:e3:5b:12:
         17:b3:a8:0c:88:8b:e4:16:ff:51:f3:b8:6c:e5:cb:18:d9:09:
         0e:ee:0c:27:26:82:87:b2:38:c7:bb:e5:d7:96:0e:e2:17:eb:
         51:f1:05:3b:d2:da:da:b5:8c:ce:fe:86:a1:6e:e4:bb:4c:61:
         b3:8b:41:90:a5:38:93:ba:e4:9a:2b:cd:c9:d0:36:89:ab:f5:
         59:9d:b3:25:07:70:2f:96:49:22:4a:5f:f2:21:85:fb:38:33:
         97:8f:cf:fe:3a:d0:24:24:0b:a3:e5:b1:65:1f:1c:c8:0e:63:
         4e:6b:3f:c5:57:31:6c:ab:c0:6e:57:5b:f7:48:59:66:3a:5d:
         a9:bd:f4:e6:d2:72:c0:14:0d:4a:65:11:12:e3:70:6f:30:15:
         a1:b9:ef:58:21:e5:62:3b:d2:72:6d:6b:0f:cc:ec:25:44:ae:
         70:08:52:45:08:1a:d0:02:5c:31:a6:fb:6b:9d:37:c4:f1:eb:
         c8:68:6d:24:de:e6:ab:6d:6e:cf:4d:a9:cf:da:19:f4:a9:94:
         d3:86:5b:fc:8e:a5:b0:f2:3b:62:a0:bd:9b:bd:71:c2:36:bc:
         19:ef:23:aa:33:64:2d:7b:65:9e:31:fb:e9:4b:8f:5f:74:fb:
         c5:b0:0d:f8
-----BEGIN CERTIFICATE-----
MIIDcTCCAlmgAwIBAgICEAEwDQYJKoZIhvcNAQELBQAwSTELMAkGA1UEBhMCQ0Ex
CzAJBgNVBAgMAkJDMQ0wCwYDVQQKDARDQURDMR4wHAYDVQQLDBVDQURDIEludGVy
bmFsIFJvb3QgQ0EwHhcNMTkxMDExMjI1MDM5WhcNMjkxMDA4MjI1MDM5WjBJMQsw
CQYDVQQGEwJDQTELMAkGA1UECAwCQkMxDTALBgNVBAoMBENBREMxHjAcBgNVBAsM
FUNBREMgSW50ZXJuYWwgUm9vdCBDQTCCASIwDQYJKoZIhvcNAQEBBQADggEPADCC
AQoCggEBAMAFaDjG5wfKMxOCMYNpPzmGFZMKKEcCUyux+zAoJG1RP87/bcE/yLTY
8RzuuvHqKD8uKWMA3hX+H5eAs1QaNfMoFL3DtwzjuSn/NNccdDoQqFfaVa6+eIOs
1NNtF6PJUFmg7yx/KF7ggcxIFPQGaWFbCA3zi9kL6F38NxGSYyRb4M9Aa71T42WC
7cFt4EuhnJ2x5hMALtud0zYUyhezrm2+cTdEaT2sSwLtsto7XOvg2Kt6aUGzNOiI
+sC30L/PFNeKs4scxIK5ohYXnQrk1Rh6kiJUpsvRPS6Aw7PE3v13PG9GkHO6ltsn
2WYcm12YmbVQeISydALr7C9lG9GTlcsCAwEAAaNjMGEwHQYDVR0OBBYEFK6HdCdK
ZbUvEonoVxL1S865uhbeMB8GA1UdIwQYMBaAFK6HdCdKZbUvEonoVxL1S865uhbe
MA8GA1UdEwEB/wQFMAMBAf8wDgYDVR0PAQH/BAQDAgGGMA0GCSqGSIb3DQEBCwUA
A4IBAQAuS/qckganSAGxa2+PBmTjWxIXs6gMiIvkFv9R87hs5csY2QkO7gwnJoKH
sjjHu+XXlg7iF+tR8QU70tratYzO/oahbuS7TGGzi0GQpTiTuuSaK83J0DaJq/VZ
nbMlB3AvlkkiSl/yIYX7ODOXj8/+OtAkJAuj5bFlHxzIDmNOaz/FVzFsq8BuV1v3
SFlmOl2pvfTm0nLAFA1KZRES43BvMBWhue9YIeViO9JybWsPzOwlRK5wCFJFCBrQ
AlwxpvtrnTfE8evIaG0k3uarbW7PTanP2hn0qZTThlv8jqWw8jtioL2bvXHCNrwZ
7yOqM2Qte2WeMfvpS49fdPvFsA34
-----END CERTIFICATE-----
